; Function Attrs: mustprogress uwtable
define internal noundef i32 @_ZL33hb_font_get_glyph_extents_defaultP9hb_font_tPvjP18hb_glyph_extents_tS1_(ptr nocapture noundef readonly %0, ptr nocapture readnone %1, i32 noundef %2, ptr noundef %3, ptr nocapture readnone %4) #1 {
  %6 = getelementptr inbounds i8, ptr %0, i64 24
  %7 = load ptr, ptr %6, align 8
  tail call void @llvm.memset.p0.i64(ptr noundef nonnull align 1 dereferenceable(16) %3, i8 0, i64 16, i1 false)
  %8 = getelementptr inbounds i8, ptr %7, i64 144
  %9 = load ptr, ptr %8, align 8
  %10 = getelementptr inbounds i8, ptr %9, i64 136
  %11 = load ptr, ptr %10, align 8
  %12 = getelementptr inbounds i8, ptr %7, i64 152
  %13 = load ptr, ptr %12, align 8
  %14 = getelementptr inbounds i8, ptr %9, i64 16
  %15 = load ptr, ptr %14, align 8
  %.not.i = icmp eq ptr %15, null
  br i1 %.not.i, label %_ZN9hb_font_t17get_glyph_extentsEjP18hb_glyph_extents_t.exit, label %16

16:                                               ; preds = %5
  %17 = getelementptr inbounds i8, ptr %15, i64 104
  %18 = load ptr, ptr %17, align 8
  br label %_ZN9hb_font_t17get_glyph_extentsEjP18hb_glyph_extents_t.exit

_ZN9hb_font_t17get_glyph_extentsEjP18hb_glyph_extents_t.exit: ; preds = %5, %16
  %19 = phi ptr [ %18, %16 ], [ null, %5 ]
  %20 = tail call noundef i32 %11(ptr noundef nonnull %7, ptr noundef %13, i32 noundef %2, ptr noundef nonnull %3, ptr noundef %19)
  %.not = icmp eq i32 %20, 0
  br i1 %.not, label %81, label %21

21:                                               ; preds = %_ZN9hb_font_t17get_glyph_extentsEjP18hb_glyph_extents_t.exit
  %22 = getelementptr inbounds i8, ptr %3, i64 4
  %23 = load i32, ptr %3, align 4
  %24 = load ptr, ptr %6, align 8
  %.not.i.i.i = icmp eq ptr %24, null
  br i1 %.not.i.i.i, label %_ZN9hb_font_t23parent_scale_x_positionEi.exit.i, label %25

25:                                               ; preds = %21
  %26 = getelementptr inbounds i8, ptr %24, i64 40
  %27 = load i32, ptr %26, align 8
  %28 = getelementptr inbounds i8, ptr %0, i64 40
  %29 = load i32, ptr %28, align 8
  %.not6.i.i.i = icmp eq i32 %27, %29
  br i1 %.not6.i.i.i, label %_ZN9hb_font_t23parent_scale_x_positionEi.exit.i, label %30

30:                                               ; preds = %25
  %31 = sext i32 %23 to i64
  %32 = sext i32 %29 to i64
  %33 = mul nsw i64 %32, %31
  %34 = sext i32 %27 to i64
  %35 = sdiv i64 %33, %34
  %36 = trunc i64 %35 to i32
  br label %_ZN9hb_font_t23parent_scale_x_positionEi.exit.i

_ZN9hb_font_t23parent_scale_x_positionEi.exit.i:  ; preds = %30, %25, %21
  %.0.i.i.i = phi i32 [ %36, %30 ], [ %23, %25 ], [ %23, %21 ]
  store i32 %.0.i.i.i, ptr %3, align 4
  %37 = load i32, ptr %22, align 4
  %38 = load ptr, ptr %6, align 8
  %.not.i.i5.i = icmp eq ptr %38, null
  br i1 %.not.i.i5.i, label %_ZN9hb_font_t21parent_scale_positionEPiS0_.exit, label %39

39:                                               ; preds = %_ZN9hb_font_t23parent_scale_x_positionEi.exit.i
  %40 = getelementptr inbounds i8, ptr %38, i64 44
  %41 = load i32, ptr %40, align 4
  %42 = getelementptr inbounds i8, ptr %0, i64 44
  %43 = load i32, ptr %42, align 4
  %.not6.i.i6.i = icmp eq i32 %41, %43
  br i1 %.not6.i.i6.i, label %_ZN9hb_font_t21parent_scale_positionEPiS0_.exit, label %44

44:                                               ; preds = %39
  %45 = sext i32 %37 to i64
  %46 = sext i32 %43 to i64
  %47 = mul nsw i64 %46, %45
  %48 = sext i32 %41 to i64
  %49 = sdiv i64 %47, %48
  %50 = trunc i64 %49 to i32
  br label %_ZN9hb_font_t21parent_scale_positionEPiS0_.exit

_ZN9hb_font_t21parent_scale_positionEPiS0_.exit:  ; preds = %_ZN9hb_font_t23parent_scale_x_positionEi.exit.i, %39, %44
  %.0.i.i7.i = phi i32 [ %50, %44 ], [ %37, %39 ], [ %37, %_ZN9hb_font_t23parent_scale_x_positionEi.exit.i ]
  store i32 %.0.i.i7.i, ptr %22, align 4
  %51 = getelementptr inbounds i8, ptr %3, i64 8
  %52 = getelementptr inbounds i8, ptr %3, i64 12
  %53 = load i32, ptr %51, align 4
  %54 = load ptr, ptr %6, align 8
  %.not.i.i = icmp eq ptr %54, null
  br i1 %.not.i.i, label %_ZN9hb_font_t23parent_scale_x_distanceEi.exit.i, label %55

55:                                               ; preds = %_ZN9hb_font_t21parent_scale_positionEPiS0_.exit
  %56 = getelementptr inbounds i8, ptr %54, i64 40
  %57 = load i32, ptr %56, align 8
  %58 = getelementptr inbounds i8, ptr %0, i64 40
  %59 = load i32, ptr %58, align 8
  %.not6.i.i = icmp eq i32 %57, %59
  br i1 %.not6.i.i, label %_ZN9hb_font_t23parent_scale_x_distanceEi.exit.i, label %60

60:                                               ; preds = %55
  %61 = sext i32 %53 to i64
  %62 = sext i32 %59 to i64
  %63 = mul nsw i64 %62, %61
  %64 = sext i32 %57 to i64
  %65 = sdiv i64 %63, %64
  %66 = trunc i64 %65 to i32
  br label %_ZN9hb_font_t23parent_scale_x_distanceEi.exit.i

_ZN9hb_font_t23parent_scale_x_distanceEi.exit.i:  ; preds = %60, %55, %_ZN9hb_font_t21parent_scale_positionEPiS0_.exit
  %.0.i.i = phi i32 [ %66, %60 ], [ %53, %55 ], [ %53, %_ZN9hb_font_t21parent_scale_positionEPiS0_.exit ]
  store i32 %.0.i.i, ptr %51, align 4
  %67 = load i32, ptr %52, align 4
  %68 = load ptr, ptr %6, align 8
  %.not.i5.i = icmp eq ptr %68, null
  br i1 %.not.i5.i, label %_ZN9hb_font_t21parent_scale_distanceEPiS0_.exit, label %69

69:                                               ; preds = %_ZN9hb_font_t23parent_scale_x_distanceEi.exit.i
  %70 = getelementptr inbounds i8, ptr %68, i64 44
  %71 = load i32, ptr %70, align 4
  %72 = getelementptr inbounds i8, ptr %0, i64 44
  %73 = load i32, ptr %72, align 4
  %.not6.i6.i = icmp eq i32 %71, %73
  br i1 %.not6.i6.i, label %_ZN9hb_font_t21parent_scale_distanceEPiS0_.exit, label %74

74:                                               ; preds = %69
  %75 = sext i32 %67 to i64
  %76 = sext i32 %73 to i64
  %77 = mul nsw i64 %76, %75
  %78 = sext i32 %71 to i64
  %79 = sdiv i64 %77, %78
  %80 = trunc i64 %79 to i32
  br label %_ZN9hb_font_t21parent_scale_distanceEPiS0_.exit

_ZN9hb_font_t21parent_scale_distanceEPiS0_.exit:  ; preds = %_ZN9hb_font_t23parent_scale_x_distanceEi.exit.i, %69, %74
  %.0.i7.i = phi i32 [ %80, %74 ], [ %67, %69 ], [ %67, %_ZN9hb_font_t23parent_scale_x_distanceEi.exit.i ]
  store i32 %.0.i7.i, ptr %52, align 4
  br label %81

81:                                               ; preds = %_ZN9hb_font_t21parent_scale_distanceEPiS0_.exit, %_ZN9hb_font_t17get_glyph_extentsEjP18hb_glyph_extents_t.exit
  ret i32 %20
}